; Function Attrs: nounwind uwtable
define hidden void @_glfwFocusWindowWayland(ptr noundef %0) local_unnamed_addr #0 {
  %2 = load ptr, ptr getelementptr inbounds nuw (i8, ptr @_glfw, i64 134016), align 8, !tbaa !250
  %.not = icmp eq ptr %2, null
  br i1 %.not, label %49, label %3

3:                                                ; preds = %1
  %4 = getelementptr inbounds nuw i8, ptr %0, i64 1112
  %5 = load ptr, ptr %4, align 8, !tbaa !240
  %.not15 = icmp eq ptr %5, null
  br i1 %.not15, label %11, label %6

6:                                                ; preds = %3
  %7 = load ptr, ptr getelementptr inbounds nuw (i8, ptr @_glfw, i64 137528), align 8, !tbaa !136
  %8 = load ptr, ptr getelementptr inbounds nuw (i8, ptr @_glfw, i64 137520), align 8, !tbaa !93
  %9 = tail call i32 %8(ptr noundef nonnull %5) #20
  %10 = tail call ptr (ptr, i32, ptr, i32, i32, ...) %7(ptr noundef nonnull %5, i32 noundef 4, ptr noundef null, i32 noundef %9, i32 noundef 1) #20
  %.pre = load ptr, ptr getelementptr inbounds nuw (i8, ptr @_glfw, i64 134016), align 8, !tbaa !250
  br label %11

11:                                               ; preds = %6, %3
  %12 = phi ptr [ %.pre, %6 ], [ %2, %3 ]
  %13 = load ptr, ptr getelementptr inbounds nuw (i8, ptr @_glfw, i64 137528), align 8, !tbaa !136
  %14 = load ptr, ptr getelementptr inbounds nuw (i8, ptr @_glfw, i64 137520), align 8, !tbaa !93
  %15 = tail call i32 %14(ptr noundef %12) #20
  %16 = tail call ptr (ptr, i32, ptr, i32, i32, ...) %13(ptr noundef %12, i32 noundef 1, ptr noundef nonnull @_glfw_xdg_activation_token_v1_interface, i32 noundef %15, i32 noundef 0, ptr noundef null) #20
  store ptr %16, ptr %4, align 8, !tbaa !240
  %17 = load ptr, ptr getelementptr inbounds nuw (i8, ptr @_glfw, i64 137456), align 8, !tbaa !176
  %18 = tail call i32 %17(ptr noundef %16, ptr noundef nonnull @xdgActivationListener, ptr noundef nonnull %0) #20
  %19 = load ptr, ptr %4, align 8, !tbaa !240
  %20 = load i32, ptr getelementptr inbounds nuw (i8, ptr @_glfw, i64 134132), align 4, !tbaa !251
  %21 = load ptr, ptr getelementptr inbounds nuw (i8, ptr @_glfw, i64 133928), align 8, !tbaa !252
  %22 = load ptr, ptr getelementptr inbounds nuw (i8, ptr @_glfw, i64 137528), align 8, !tbaa !136
  %23 = load ptr, ptr getelementptr inbounds nuw (i8, ptr @_glfw, i64 137520), align 8, !tbaa !93
  %24 = tail call i32 %23(ptr noundef %19) #20
  %25 = tail call ptr (ptr, i32, ptr, i32, i32, ...) %22(ptr noundef %19, i32 noundef 0, ptr noundef null, i32 noundef %24, i32 noundef 0, i32 noundef %20, ptr noundef %21) #20
  %26 = load ptr, ptr getelementptr inbounds nuw (i8, ptr @_glfw, i64 137368), align 8, !tbaa !239
  %.not16 = icmp eq ptr %26, null
  br i1 %.not16, label %43, label %27

27:                                               ; preds = %11
  %28 = load ptr, ptr %4, align 8, !tbaa !240
  %29 = getelementptr inbounds nuw i8, ptr %26, i64 904
  %30 = load ptr, ptr %29, align 8, !tbaa !135
  %31 = load ptr, ptr getelementptr inbounds nuw (i8, ptr @_glfw, i64 137528), align 8, !tbaa !136
  %32 = load ptr, ptr getelementptr inbounds nuw (i8, ptr @_glfw, i64 137520), align 8, !tbaa !93
  %33 = tail call i32 %32(ptr noundef %28) #20
  %34 = tail call ptr (ptr, i32, ptr, i32, i32, ...) %31(ptr noundef %28, i32 noundef 2, ptr noundef null, i32 noundef %33, i32 noundef 0, ptr noundef %30) #20
  %35 = getelementptr inbounds nuw i8, ptr %26, i64 1016
  %36 = load ptr, ptr %35, align 8, !tbaa !192
  %.not17 = icmp eq ptr %36, null
  br i1 %.not17, label %43, label %37

37:                                               ; preds = %27
  %38 = load ptr, ptr %4, align 8, !tbaa !240
  %39 = load ptr, ptr getelementptr inbounds nuw (i8, ptr @_glfw, i64 137528), align 8, !tbaa !136
  %40 = load ptr, ptr getelementptr inbounds nuw (i8, ptr @_glfw, i64 137520), align 8, !tbaa !93
  %41 = tail call i32 %40(ptr noundef %38) #20
  %42 = tail call ptr (ptr, i32, ptr, i32, i32, ...) %39(ptr noundef %38, i32 noundef 1, ptr noundef null, i32 noundef %41, i32 noundef 0, ptr noundef nonnull %36) #20
  br label %43

43:                                               ; preds = %27, %37, %11
  %44 = load ptr, ptr %4, align 8, !tbaa !240
  %45 = load ptr, ptr getelementptr inbounds nuw (i8, ptr @_glfw, i64 137528), align 8, !tbaa !136
  %46 = load ptr, ptr getelementptr inbounds nuw (i8, ptr @_glfw, i64 137520), align 8, !tbaa !93
  %47 = tail call i32 %46(ptr noundef %44) #20
  %48 = tail call ptr (ptr, i32, ptr, i32, i32, ...) %45(ptr noundef %44, i32 noundef 3, ptr noundef null, i32 noundef %47, i32 noundef 0) #20
  br label %49

49:                                               ; preds = %1, %43
  ret void
}